target datalayout = "e-m:e-p270:32:32-p271:32:32-p272:64:64-i64:64-i128:128-f80:128-n8:16:32:64-S128"
target triple = "x86_64-pc-linux-gnu"

%struct.MPVEncContext = type { %struct.MpegEncContext, %struct.PutBitContext, i32, i32, ptr, i32, i32, i32, i32, i32, i32, i32, i32, ptr, ptr, %struct.FDCTDSPContext, %struct.MpegvideoEncDSPContext, %struct.PixblockDSPContext, %struct.MotionEstContext, i32, i32, ptr, ptr, ptr, ptr, ptr, ptr, [2 x [2 x [2 x ptr]]], [2 x ptr], [2 x [2 x ptr]], ptr, ptr, ptr, ptr, [3 x i64], i32, i32, i32, i32, i32, ptr, ptr, ptr, ptr, ptr, ptr, ptr, [12 x i32], ptr, ptr, ptr, ptr, ptr, ptr, ptr, ptr, [2 x i32], ptr, i32, i32, i32, i32, i32, i32, i32, i32, i32, i32, ptr, ptr, i32, i32, %struct.PutBitContext, %struct.PutBitContext, i32, i32, i32, i32, ptr, ptr, ptr, [2 x ptr], [2 x ptr], [2 x ptr], [2 x ptr], ptr, i32 }
%struct.MpegEncContext = type { ptr, i32, i32, i32, [12 x i32], i32, %struct.ScanTable, %struct.ScanTable, [64 x i8], [64 x i8], ptr, ptr, i32, i32, i32, i32, i32, i32, i32, i32, i32, i32, i32, i32, i32, i32, i32, i32, i32, i32, i32, i32, i64, i64, ptr, %struct.BufferPoolContext, i32, i32, %union.anon, i32, %struct.MPVWorkPicture, %struct.MPVWorkPicture, %struct.MPVWorkPicture, i32, [3 x i32], ptr, [3 x ptr], ptr, ptr, ptr, ptr, ptr, ptr, [3 x ptr], i32, ptr, ptr, ptr, ptr, %struct.ScratchpadContext, i32, i32, i32, i32, i32, i32, %struct.BlockDSPContext, %struct.H264ChromaContext, %struct.HpelDSPContext, %struct.IDCTDSPContext, %struct.QpelDSPContext, %struct.VideoDSPContext, %struct.H263DSPContext, ptr, [2 x [2 x ptr]], i32, i32, [2 x [4 x [2 x i32]]], [2 x [2 x i32]], [2 x [2 x [2 x i32]]], [2 x [64 x i16]], i32, i32, i32, i32, i32, [6 x i32], [6 x i32], [3 x ptr], ptr, [64 x i16], [64 x i16], [64 x i16], [64 x i16], i32, i32, %struct.GetBitContext, i32, i32, i32, i32, i32, i32, i32, i32, i32, i32, i32, i32, i32, i32, i32, i64, i64, i16, i16, i16, i16, i32, i32, i32, i32, i32, i32, i32, i32, i32, [3 x i32], i32, i32, i32, i32, i32, i32, %struct.GetBitContext, i32, [2 x [2 x i32]], i32, i32, i32, i32, i32, i32, i32, i32, i32, i32, i32, i32, i32, i32, [2 x i32], i32, i32, ptr, ptr, ptr, ptr, ptr, i32, i32, %struct.ERContext }
%struct.ScanTable = type { ptr, [64 x i8], [64 x i8] }
%struct.BufferPoolContext = type { ptr, ptr, ptr, ptr, ptr, i32, i32, i32 }
%union.anon = type { [32 x ptr] }
%struct.MPVWorkPicture = type { [3 x ptr], [3 x i64], ptr, ptr, [2 x ptr], ptr, ptr, [2 x ptr], i32 }
%struct.ScratchpadContext = type { ptr, ptr, %union.anon.0, i32 }
%union.anon.0 = type { ptr }
%struct.BlockDSPContext = type { ptr, ptr, [2 x ptr] }
%struct.H264ChromaContext = type { [4 x ptr], [4 x ptr] }
%struct.HpelDSPContext = type { [4 x [4 x ptr]], [4 x [4 x ptr]], [4 x [4 x ptr]], [4 x ptr] }
%struct.IDCTDSPContext = type { ptr, ptr, ptr, ptr, ptr, ptr, [64 x i8], i32, i32 }
%struct.QpelDSPContext = type { [2 x [16 x ptr]], [2 x [16 x ptr]], [2 x [16 x ptr]] }
%struct.VideoDSPContext = type { ptr, ptr }
%struct.H263DSPContext = type { ptr, ptr }
%struct.GetBitContext = type { ptr, ptr, i32, i32, i32 }
%struct.ERContext = type { ptr, ptr, i32, ptr, i32, i32, i32, i64, i64, i32, i32, ptr, ptr, [3 x ptr], ptr, ptr, [2 x [4 x [2 x i32]]], %struct.ERPicture, %struct.ERPicture, %struct.ERPicture, [2 x ptr], [2 x ptr], i16, i16, i32, i32, ptr, ptr }
%struct.ERPicture = type { ptr, ptr, ptr, [2 x ptr], [2 x ptr], ptr, i32 }
%struct.FDCTDSPContext = type { ptr, ptr }
%struct.MpegvideoEncDSPContext = type { ptr, ptr, ptr, ptr, [4 x ptr], ptr }
%struct.PixblockDSPContext = type { ptr, ptr, ptr, ptr }
%struct.MotionEstContext = type { ptr, i32, i32, [4 x [2 x i32]], [4 x [2 x i32]], ptr, ptr, i32, i32, i32, i32, i32, i32, i32, i32, i32, i32, i32, i32, i32, i32, i32, i32, [4 x [4 x ptr]], [4 x [4 x ptr]], i32, i32, i64, i64, i32, [6 x ptr], [6 x ptr], [6 x ptr], [6 x ptr], [2 x [4 x ptr]], ptr, ptr, ptr, ptr, ptr, ptr, ptr, ptr, [64 x i32], [64 x i32] }
%struct.PutBitContext = type { i32, i32, ptr, ptr, ptr }
%struct.MPVMainEncContext = type { %struct.MPVEncContext, i32, i32, i32, i32, i32, i32, [17 x ptr], [17 x ptr], i64, i64, i64, [18 x ptr], i32, i32, i32, i32, i32, float, i32, i32, i32, i32, ptr, i32, i32, i32, i32, ptr, ptr, i64, i64, i32, i32, i32, i32, i32, [5 x i32], i32, i32, %struct.RateControlContext, i32, i32, i64, i64, ptr, ptr, ptr }
%struct.RateControlContext = type { i32, ptr, double, [5 x %struct.Predictor], double, double, double, double, double, [5 x double], i64, i64, [5 x i64], [5 x i64], [5 x i64], [5 x i64], [5 x i32], i32, float, float, i32, float, float, ptr, ptr, ptr, ptr }
%struct.Predictor = type { double, double, double }

@ff_h263_get_mv_penalty.init_static_once = internal global i32 0, align 4
@mv_penalty = internal global [8 x [16385 x i8]] zeroinitializer, align 16
@uni_h263_inter_rl_len = internal global [16384 x i8] zeroinitializer, align 16
@uni_h263_intra_aic_rl_len = internal global [16384 x i8] zeroinitializer, align 16
@ff_aic_dc_scale_table = external constant [32 x i8], align 16
@ff_h263_chroma_qscale_table = external constant [32 x i8], align 16
@umv_fcode_tab = internal global [8193 x i8] zeroinitializer, align 16

; Function Attrs: cold nounwind optsize uwtable
define ptr @ff_h263_get_mv_penalty() #0 {
  %1 = call i32 @pthread_once(ptr noundef @ff_h263_get_mv_penalty.init_static_once, ptr noundef @h263_encode_init_static)
  ret ptr @mv_penalty
}

; Function Attrs: cold nounwind optsize uwtable
define void @ff_h263_encode_init(ptr noundef %0) #0 {
  %2 = alloca ptr, align 8
  %3 = alloca ptr, align 8
  %4 = alloca i32, align 4
  store ptr %0, ptr %2, align 8, !tbaa !81
  call void @llvm.lifetime.start.p0(i64 8, ptr %3) #11
  %5 = load ptr, ptr %2, align 8, !tbaa !81
  %6 = getelementptr inbounds nuw %struct.MPVMainEncContext, ptr %5, i32 0, i32 0
  store ptr %6, ptr %3, align 8, !tbaa !20
  %7 = call ptr @ff_h263_get_mv_penalty() #10
  %8 = load ptr, ptr %3, align 8, !tbaa !20
  %9 = getelementptr inbounds nuw %struct.MPVEncContext, ptr %8, i32 0, i32 18
  %10 = getelementptr inbounds nuw %struct.MotionEstContext, ptr %9, i32 0, i32 40
  store ptr %7, ptr %10, align 8, !tbaa !82
  %11 = load ptr, ptr %3, align 8, !tbaa !20
  %12 = getelementptr inbounds nuw %struct.MPVEncContext, ptr %11, i32 0, i32 0
  %13 = getelementptr inbounds nuw %struct.MpegEncContext, ptr %12, i32 0, i32 72
  call void @ff_h263dsp_init(ptr noundef %13)
  %14 = load ptr, ptr %3, align 8, !tbaa !20
  %15 = getelementptr inbounds nuw %struct.MPVEncContext, ptr %14, i32 0, i32 0
  %16 = getelementptr inbounds nuw %struct.MpegEncContext, ptr %15, i32 0, i32 19
  %17 = load i32, ptr %16, align 4, !tbaa !72
  %18 = icmp eq i32 %17, 12
  br i1 %18, label %19, label %20

19:                                               ; preds = %1
  store i32 1, ptr %4, align 4
  br label %129

20:                                               ; preds = %1
  %21 = load ptr, ptr %3, align 8, !tbaa !20
  %22 = getelementptr inbounds nuw %struct.MPVEncContext, ptr %21, i32 0, i32 44
  store ptr @uni_h263_inter_rl_len, ptr %22, align 8, !tbaa !83
  %23 = load ptr, ptr %3, align 8, !tbaa !20
  %24 = getelementptr inbounds nuw %struct.MPVEncContext, ptr %23, i32 0, i32 40
  store ptr @uni_h263_inter_rl_len, ptr %24, align 8, !tbaa !84
  %25 = load ptr, ptr %3, align 8, !tbaa !20
  %26 = getelementptr inbounds nuw %struct.MPVEncContext, ptr %25, i32 0, i32 45
  store ptr getelementptr inbounds (i8, ptr @uni_h263_inter_rl_len, i64 8192), ptr %26, align 8, !tbaa !85
  %27 = load ptr, ptr %3, align 8, !tbaa !20
  %28 = getelementptr inbounds nuw %struct.MPVEncContext, ptr %27, i32 0, i32 41
  store ptr getelementptr inbounds (i8, ptr @uni_h263_inter_rl_len, i64 8192), ptr %28, align 8, !tbaa !86
  %29 = load ptr, ptr %3, align 8, !tbaa !20
  %30 = getelementptr inbounds nuw %struct.MPVEncContext, ptr %29, i32 0, i32 0
  %31 = getelementptr inbounds nuw %struct.MpegEncContext, ptr %30, i32 0, i32 5
  %32 = load i32, ptr %31, align 4, !tbaa !87
  %33 = icmp ne i32 %32, 0
  br i1 %33, label %34, label %45

34:                                               ; preds = %20
  %35 = load ptr, ptr %3, align 8, !tbaa !20
  %36 = getelementptr inbounds nuw %struct.MPVEncContext, ptr %35, i32 0, i32 40
  store ptr @uni_h263_intra_aic_rl_len, ptr %36, align 8, !tbaa !84
  %37 = load ptr, ptr %3, align 8, !tbaa !20
  %38 = getelementptr inbounds nuw %struct.MPVEncContext, ptr %37, i32 0, i32 41
  store ptr getelementptr inbounds (i8, ptr @uni_h263_intra_aic_rl_len, i64 8192), ptr %38, align 8, !tbaa !86
  %39 = load ptr, ptr %3, align 8, !tbaa !20
  %40 = getelementptr inbounds nuw %struct.MPVEncContext, ptr %39, i32 0, i32 0
  %41 = getelementptr inbounds nuw %struct.MpegEncContext, ptr %40, i32 0, i32 48
  store ptr @ff_aic_dc_scale_table, ptr %41, align 8, !tbaa !88
  %42 = load ptr, ptr %3, align 8, !tbaa !20
  %43 = getelementptr inbounds nuw %struct.MPVEncContext, ptr %42, i32 0, i32 0
  %44 = getelementptr inbounds nuw %struct.MpegEncContext, ptr %43, i32 0, i32 47
  store ptr @ff_aic_dc_scale_table, ptr %44, align 8, !tbaa !89
  br label %45

45:                                               ; preds = %34, %20
  %46 = load ptr, ptr %3, align 8, !tbaa !20
  %47 = getelementptr inbounds nuw %struct.MPVEncContext, ptr %46, i32 0, i32 39
  store i32 22, ptr %47, align 8, !tbaa !90
  %48 = load ptr, ptr %3, align 8, !tbaa !20
  %49 = getelementptr inbounds nuw %struct.MPVEncContext, ptr %48, i32 0, i32 0
  %50 = getelementptr inbounds nuw %struct.MpegEncContext, ptr %49, i32 0, i32 105
  %51 = load i32, ptr %50, align 8, !tbaa !91
  %52 = icmp ne i32 %51, 0
  br i1 %52, label %53, label %57

53:                                               ; preds = %45
  %54 = load ptr, ptr %3, align 8, !tbaa !20
  %55 = getelementptr inbounds nuw %struct.MPVEncContext, ptr %54, i32 0, i32 0
  %56 = getelementptr inbounds nuw %struct.MpegEncContext, ptr %55, i32 0, i32 49
  store ptr @ff_h263_chroma_qscale_table, ptr %56, align 8, !tbaa !92
  br label %57

57:                                               ; preds = %53, %45
  %58 = load ptr, ptr %3, align 8, !tbaa !20
  %59 = getelementptr inbounds nuw %struct.MPVEncContext, ptr %58, i32 0, i32 0
  %60 = getelementptr inbounds nuw %struct.MpegEncContext, ptr %59, i32 0, i32 19
  %61 = load i32, ptr %60, align 4, !tbaa !72
  switch i32 %61, label %107 [
    i32 19, label %62
    i32 21, label %88
  ]

62:                                               ; preds = %57
  %63 = load ptr, ptr %3, align 8, !tbaa !20
  %64 = getelementptr inbounds nuw %struct.MPVEncContext, ptr %63, i32 0, i32 0
  %65 = getelementptr inbounds nuw %struct.MpegEncContext, ptr %64, i32 0, i32 101
  %66 = load i32, ptr %65, align 8, !tbaa !93
  %67 = icmp ne i32 %66, 0
  br i1 %67, label %68, label %71

68:                                               ; preds = %62
  %69 = load ptr, ptr %2, align 8, !tbaa !81
  %70 = getelementptr inbounds nuw %struct.MPVMainEncContext, ptr %69, i32 0, i32 23
  store ptr getelementptr inbounds (i8, ptr @umv_fcode_tab, i64 4096), ptr %70, align 8, !tbaa !94
  br label %71

71:                                               ; preds = %68, %62
  %72 = load ptr, ptr %3, align 8, !tbaa !20
  %73 = getelementptr inbounds nuw %struct.MPVEncContext, ptr %72, i32 0, i32 0
  %74 = getelementptr inbounds nuw %struct.MpegEncContext, ptr %73, i32 0, i32 105
  %75 = load i32, ptr %74, align 8, !tbaa !91
  %76 = icmp ne i32 %75, 0
  br i1 %76, label %77, label %82

77:                                               ; preds = %71
  %78 = load ptr, ptr %3, align 8, !tbaa !20
  %79 = getelementptr inbounds nuw %struct.MPVEncContext, ptr %78, i32 0, i32 37
  store i32 -2047, ptr %79, align 8, !tbaa !102
  %80 = load ptr, ptr %3, align 8, !tbaa !20
  %81 = getelementptr inbounds nuw %struct.MPVEncContext, ptr %80, i32 0, i32 38
  store i32 2047, ptr %81, align 4, !tbaa !103
  br label %87

82:                                               ; preds = %71
  %83 = load ptr, ptr %3, align 8, !tbaa !20
  %84 = getelementptr inbounds nuw %struct.MPVEncContext, ptr %83, i32 0, i32 37
  store i32 -127, ptr %84, align 8, !tbaa !102
  %85 = load ptr, ptr %3, align 8, !tbaa !20
  %86 = getelementptr inbounds nuw %struct.MPVEncContext, ptr %85, i32 0, i32 38
  store i32 127, ptr %86, align 4, !tbaa !103
  br label %87

87:                                               ; preds = %82, %77
  br label %112

88:                                               ; preds = %57
  %89 = load ptr, ptr %2, align 8, !tbaa !81
  %90 = getelementptr inbounds nuw %struct.MPVMainEncContext, ptr %89, i32 0, i32 29
  store ptr @ff_flv_encode_picture_header, ptr %90, align 8, !tbaa !104
  %91 = load ptr, ptr %3, align 8, !tbaa !20
  %92 = getelementptr inbounds nuw %struct.MPVEncContext, ptr %91, i32 0, i32 0
  %93 = getelementptr inbounds nuw %struct.MpegEncContext, ptr %92, i32 0, i32 18
  %94 = load i32, ptr %93, align 8, !tbaa !105
  %95 = icmp sgt i32 %94, 1
  br i1 %95, label %96, label %101

96:                                               ; preds = %88
  %97 = load ptr, ptr %3, align 8, !tbaa !20
  %98 = getelementptr inbounds nuw %struct.MPVEncContext, ptr %97, i32 0, i32 37
  store i32 -1023, ptr %98, align 8, !tbaa !102
  %99 = load ptr, ptr %3, align 8, !tbaa !20
  %100 = getelementptr inbounds nuw %struct.MPVEncContext, ptr %99, i32 0, i32 38
  store i32 1023, ptr %100, align 4, !tbaa !103
  br label %106

101:                                              ; preds = %88
  %102 = load ptr, ptr %3, align 8, !tbaa !20
  %103 = getelementptr inbounds nuw %struct.MPVEncContext, ptr %102, i32 0, i32 37
  store i32 -127, ptr %103, align 8, !tbaa !102
  %104 = load ptr, ptr %3, align 8, !tbaa !20
  %105 = getelementptr inbounds nuw %struct.MPVEncContext, ptr %104, i32 0, i32 38
  store i32 127, ptr %105, align 4, !tbaa !103
  br label %106

106:                                              ; preds = %101, %96
  br label %112

107:                                              ; preds = %57
  %108 = load ptr, ptr %3, align 8, !tbaa !20
  %109 = getelementptr inbounds nuw %struct.MPVEncContext, ptr %108, i32 0, i32 37
  store i32 -127, ptr %109, align 8, !tbaa !102
  %110 = load ptr, ptr %3, align 8, !tbaa !20
  %111 = getelementptr inbounds nuw %struct.MPVEncContext, ptr %110, i32 0, i32 38
  store i32 127, ptr %111, align 4, !tbaa !103
  br label %112

112:                                              ; preds = %107, %106, %87
  %113 = load ptr, ptr %2, align 8, !tbaa !81
  %114 = getelementptr inbounds nuw %struct.MPVMainEncContext, ptr %113, i32 0, i32 29
  %115 = load ptr, ptr %114, align 8, !tbaa !104
  %116 = icmp ne ptr %115, null
  br i1 %116, label %120, label %117

117:                                              ; preds = %112
  %118 = load ptr, ptr %2, align 8, !tbaa !81
  %119 = getelementptr inbounds nuw %struct.MPVMainEncContext, ptr %118, i32 0, i32 29
  store ptr @h263_encode_picture_header, ptr %119, align 8, !tbaa !104
  br label %120

120:                                              ; preds = %117, %112
  %121 = load ptr, ptr %3, align 8, !tbaa !20
  %122 = getelementptr inbounds nuw %struct.MPVEncContext, ptr %121, i32 0, i32 79
  %123 = load ptr, ptr %122, align 8, !tbaa !106
  %124 = icmp ne ptr %123, null
  br i1 %124, label %128, label %125

125:                                              ; preds = %120
  %126 = load ptr, ptr %3, align 8, !tbaa !20
  %127 = getelementptr inbounds nuw %struct.MPVEncContext, ptr %126, i32 0, i32 79
  store ptr @h263_encode_mb, ptr %127, align 8, !tbaa !106
  br label %128

128:                                              ; preds = %125, %120
  store i32 0, ptr %4, align 4
  br label %129

129:                                              ; preds = %128, %19
  call void @llvm.lifetime.end.p0(i64 8, ptr %3) #11
  %130 = load i32, ptr %4, align 4
  switch i32 %130, label %132 [
    i32 0, label %131
    i32 1, label %131
  ]

131:                                              ; preds = %129, %129
  ret void

132:                                              ; preds = %129
  unreachable
}