; Function Attrs: cold nounwind optsize uwtable
define void @ff_h263_encode_init(ptr noundef initializes((5768, 5776)) %0) local_unnamed_addr #0 {
  %2 = tail call i32 @pthread_once(ptr noundef nonnull @ff_h263_get_mv_penalty.init_static_once, ptr noundef nonnull @h263_encode_init_static) #11
  %3 = getelementptr inbounds nuw i8, ptr %0, i64 5768
  store ptr @mv_penalty, ptr %3, align 8, !tbaa !75
  %4 = getelementptr inbounds nuw i8, ptr %0, i64 2912
  tail call void @ff_h263dsp_init(ptr noundef nonnull %4) #11
  %5 = getelementptr inbounds nuw i8, ptr %0, i64 516
  %6 = load i32, ptr %5, align 4, !tbaa !65
  %7 = icmp eq i32 %6, 12
  br i1 %7, label %55, label %8

8:                                                ; preds = %1
  %9 = getelementptr inbounds nuw i8, ptr %0, i64 6584
  store ptr @uni_h263_inter_rl_len, ptr %9, align 8, !tbaa !76
  %10 = getelementptr inbounds nuw i8, ptr %0, i64 6552
  store ptr @uni_h263_inter_rl_len, ptr %10, align 8, !tbaa !77
  %11 = getelementptr inbounds nuw i8, ptr %0, i64 6592
  store ptr getelementptr inbounds nuw (i8, ptr @uni_h263_inter_rl_len, i64 8192), ptr %11, align 8, !tbaa !78
  %12 = getelementptr inbounds nuw i8, ptr %0, i64 6560
  store ptr getelementptr inbounds nuw (i8, ptr @uni_h263_inter_rl_len, i64 8192), ptr %12, align 8, !tbaa !79
  %13 = getelementptr inbounds nuw i8, ptr %0, i64 68
  %14 = load i32, ptr %13, align 4, !tbaa !80
  %.not = icmp eq i32 %14, 0
  br i1 %.not, label %18, label %15

15:                                               ; preds = %8
  store ptr @uni_h263_intra_aic_rl_len, ptr %10, align 8, !tbaa !77
  store ptr getelementptr inbounds nuw (i8, ptr @uni_h263_intra_aic_rl_len, i64 8192), ptr %12, align 8, !tbaa !79
  %16 = getelementptr inbounds nuw i8, ptr %0, i64 1336
  store ptr @ff_aic_dc_scale_table, ptr %16, align 8, !tbaa !81
  %17 = getelementptr inbounds nuw i8, ptr %0, i64 1328
  store ptr @ff_aic_dc_scale_table, ptr %17, align 8, !tbaa !82
  br label %18

18:                                               ; preds = %15, %8
  %19 = getelementptr inbounds nuw i8, ptr %0, i64 6544
  store i32 22, ptr %19, align 8, !tbaa !83
  %20 = getelementptr inbounds nuw i8, ptr %0, i64 4032
  %21 = load i32, ptr %20, align 8, !tbaa !84
  %.not36 = icmp eq i32 %21, 0
  br i1 %.not36, label %24, label %22

22:                                               ; preds = %18
  %23 = getelementptr inbounds nuw i8, ptr %0, i64 1344
  store ptr @ff_h263_chroma_qscale_table, ptr %23, align 8, !tbaa !85
  br label %24

24:                                               ; preds = %22, %18
  switch i32 %6, label %44 [
    i32 19, label %25
    i32 21, label %35
  ]

25:                                               ; preds = %24
  %26 = getelementptr inbounds nuw i8, ptr %0, i64 4016
  %27 = load i32, ptr %26, align 8, !tbaa !86
  %.not37 = icmp eq i32 %27, 0
  br i1 %.not37, label %30, label %28

28:                                               ; preds = %25
  %29 = getelementptr inbounds nuw i8, ptr %0, i64 7488
  store ptr getelementptr inbounds nuw (i8, ptr @umv_fcode_tab, i64 4096), ptr %29, align 8, !tbaa !87
  br label %30

30:                                               ; preds = %28, %25
  %31 = getelementptr inbounds nuw i8, ptr %0, i64 6536
  %32 = getelementptr inbounds nuw i8, ptr %0, i64 6540
  br i1 %.not36, label %34, label %33

33:                                               ; preds = %30
  store i32 -2047, ptr %31, align 8, !tbaa !95
  store i32 2047, ptr %32, align 4, !tbaa !96
  br label %47

34:                                               ; preds = %30
  store i32 -127, ptr %31, align 8, !tbaa !95
  store i32 127, ptr %32, align 4, !tbaa !96
  br label %47

35:                                               ; preds = %24
  %36 = getelementptr inbounds nuw i8, ptr %0, i64 7520
  store ptr @ff_flv_encode_picture_header, ptr %36, align 8, !tbaa !97
  %37 = getelementptr inbounds nuw i8, ptr %0, i64 512
  %38 = load i32, ptr %37, align 8, !tbaa !98
  %39 = icmp sgt i32 %38, 1
  %40 = getelementptr inbounds nuw i8, ptr %0, i64 6536
  %41 = getelementptr inbounds nuw i8, ptr %0, i64 6540
  br i1 %39, label %42, label %43

42:                                               ; preds = %35
  store i32 -1023, ptr %40, align 8, !tbaa !95
  store i32 1023, ptr %41, align 4, !tbaa !96
  br label %47

43:                                               ; preds = %35
  store i32 -127, ptr %40, align 8, !tbaa !95
  store i32 127, ptr %41, align 4, !tbaa !96
  br label %47

44:                                               ; preds = %24
  %45 = getelementptr inbounds nuw i8, ptr %0, i64 6536
  store i32 -127, ptr %45, align 8, !tbaa !95
  %46 = getelementptr inbounds nuw i8, ptr %0, i64 6540
  store i32 127, ptr %46, align 4, !tbaa !96
  br label %47

47:                                               ; preds = %42, %43, %33, %34, %44
  %48 = getelementptr inbounds nuw i8, ptr %0, i64 7520
  %49 = load ptr, ptr %48, align 8, !tbaa !97
  %.not39 = icmp eq ptr %49, null
  br i1 %.not39, label %50, label %51

50:                                               ; preds = %47
  store ptr @h263_encode_picture_header, ptr %48, align 8, !tbaa !97
  br label %51

51:                                               ; preds = %50, %47
  %52 = getelementptr inbounds nuw i8, ptr %0, i64 6888
  %53 = load ptr, ptr %52, align 8, !tbaa !99
  %.not40 = icmp eq ptr %53, null
  br i1 %.not40, label %54, label %55

54:                                               ; preds = %51
  store ptr @h263_encode_mb, ptr %52, align 8, !tbaa !99
  br label %55

55:                                               ; preds = %51, %54, %1
  ret void
}